target datalayout = "e-m:e-p270:32:32-p271:32:32-p272:64:64-i64:64-i128:128-f80:128-n8:16:32:64-S128"
target triple = "x86_64-pc-linux-gnu"

%struct.Cec_ParCor_t_ = type { i32, i32, i32, i32, i32, i32, i32, i32, i32, i32, i32, i32, i32, i32, i32, i32, i32, i32, i32, i32, ptr, ptr }

; Function Attrs: nounwind uwtable
define ptr @Cec_GiaScorrNew(ptr noundef %0) #0 {
  %2 = alloca ptr, align 8
  %3 = alloca %struct.Cec_ParCor_t_, align 8
  %4 = alloca ptr, align 8
  store ptr %0, ptr %2, align 8, !tbaa !3
  call void @llvm.lifetime.start.p0(i64 96, ptr %3) #9
  call void @llvm.lifetime.start.p0(i64 8, ptr %4) #9
  store ptr %3, ptr %4, align 8, !tbaa !66
  %5 = load ptr, ptr %4, align 8, !tbaa !66
  call void @Cec_ManCorSetDefaultParams(ptr noundef %5)
  %6 = load ptr, ptr %4, align 8, !tbaa !66
  %7 = getelementptr inbounds nuw %struct.Cec_ParCor_t_, ptr %6, i32 0, i32 4
  store i32 100, ptr %7, align 8, !tbaa !68
  %8 = load ptr, ptr %4, align 8, !tbaa !66
  %9 = getelementptr inbounds nuw %struct.Cec_ParCor_t_, ptr %8, i32 0, i32 7
  store i32 100, ptr %9, align 4, !tbaa !70
  %10 = load ptr, ptr %4, align 8, !tbaa !66
  %11 = getelementptr inbounds nuw %struct.Cec_ParCor_t_, ptr %10, i32 0, i32 19
  store i32 0, ptr %11, align 4, !tbaa !71
  %12 = load ptr, ptr %4, align 8, !tbaa !66
  %13 = getelementptr inbounds nuw %struct.Cec_ParCor_t_, ptr %12, i32 0, i32 14
  store i32 1, ptr %13, align 8, !tbaa !72
  %14 = load ptr, ptr %2, align 8, !tbaa !3
  %15 = load ptr, ptr %4, align 8, !tbaa !66
  %16 = call ptr @Cec_ManLSCorrespondence(ptr noundef %14, ptr noundef %15)
  call void @llvm.lifetime.end.p0(i64 8, ptr %4) #9
  call void @llvm.lifetime.end.p0(i64 96, ptr %3) #9
  ret ptr %16
}