; Function Attrs: nounwind uwtable
define ptr @Cec_GiaScorrNew(ptr noundef %0) local_unnamed_addr #0 {
  %2 = alloca %struct.Cec_ParCor_t_, align 8
  call void @llvm.lifetime.start.p0(i64 96, ptr nonnull %2) #13
  call void @Cec_ManCorSetDefaultParams(ptr noundef nonnull %2) #13
  %3 = getelementptr inbounds nuw i8, ptr %2, i64 16
  store i32 100, ptr %3, align 8, !tbaa !54
  %4 = getelementptr inbounds nuw i8, ptr %2, i64 28
  store i32 100, ptr %4, align 4, !tbaa !56
  %5 = getelementptr inbounds nuw i8, ptr %2, i64 76
  store i32 0, ptr %5, align 4, !tbaa !57
  %6 = getelementptr inbounds nuw i8, ptr %2, i64 56
  store i32 1, ptr %6, align 8, !tbaa !58
  %7 = call ptr @Cec_ManLSCorrespondence(ptr noundef %0, ptr noundef nonnull %2) #13
  call void @llvm.lifetime.end.p0(i64 96, ptr nonnull %2) #13
  ret ptr %7
}